#include <math.h>
#include <stdio.h>
#include <stdlib.h>
#include <string.h>
#include <iostream>
using namespace std;

//********************
// 1.cpp
// ??  1200018415
// 11 15
//*******************


int main()
{
	char str[102];    
	int i = 0, len = 0, count = 0;
	cin.getline(str,102);             // ?????
	while (i < strlen(str)) 
	{
		
		if (str[i] != ' ')           // ??????
		{
			cout << str[i];          // ????
			count = 0;               // ????0
		}
		if (str[i] == ' ')           // ?????
		{
			count++;                 // ???1
			if (count == 1)          // ??????
				cout << str[i];      // ?????
		}
		i++;
	}
	cout << endl;

	return 0;
}

